target datalayout = "e-m:e-p270:32:32-p271:32:32-p272:64:64-i64:64-i128:128-f80:128-n8:16:32:64-S128"
target triple = "x86_64-pc-linux-gnu"

%struct.gmx_ana_index_t = type { i32, ptr, i32 }

@.str.3 = private unnamed_addr constant [129 x i8] c"generated/home/dtcxzyw/WorkSpace/Projects/compilers/llvm-opt-benchmark/bench/gromacs/gromacs/src/gromacs/selection/indexutil.cpp\00", align 1
@.str.12 = private unnamed_addr constant [12 x i8] c"dest->index\00", align 1

; Function Attrs: inlinehint mustprogress uwtable
define internal void @_ZL13gmx_snew_implIiEvPKcS1_iRPT_m(ptr noundef %0, ptr noundef %1, i32 noundef %2, ptr noundef nonnull align 8 dereferenceable(8) %3, i64 noundef %4) #5 {
  %6 = alloca ptr, align 8
  %7 = alloca ptr, align 8
  %8 = alloca i32, align 4
  %9 = alloca ptr, align 8
  %10 = alloca i64, align 8
  store ptr %0, ptr %6, align 8, !tbaa !54
  store ptr %1, ptr %7, align 8, !tbaa !54
  store i32 %2, ptr %8, align 4, !tbaa !114
  store ptr %3, ptr %9, align 8, !tbaa !84
  store i64 %4, ptr %10, align 8, !tbaa !19
  %11 = load ptr, ptr %6, align 8, !tbaa !54
  %12 = load ptr, ptr %7, align 8, !tbaa !54
  %13 = load i32, ptr %8, align 4, !tbaa !114
  %14 = load i64, ptr %10, align 8, !tbaa !19
  %15 = call noundef ptr @_Z11save_callocPKcS0_imm(ptr noundef %11, ptr noundef %12, i32 noundef %13, i64 noundef %14, i64 noundef 4)
  %16 = load ptr, ptr %9, align 8, !tbaa !84
  store ptr %15, ptr %16, align 8, !tbaa !77
  ret void
}

; Function Attrs: mustprogress uwtable
define void @_Z18gmx_ana_index_copyP15gmx_ana_index_tS0_b(ptr noundef %0, ptr noundef %1, i1 noundef zeroext %2) #0 {
  %4 = alloca ptr, align 8
  %5 = alloca ptr, align 8
  %6 = alloca i8, align 1
  store ptr %0, ptr %4, align 8, !tbaa !232
  store ptr %1, ptr %5, align 8, !tbaa !232
  %7 = zext i1 %2 to i8
  store i8 %7, ptr %6, align 1, !tbaa !36
  %8 = load ptr, ptr %5, align 8, !tbaa !232
  %9 = getelementptr inbounds nuw %struct.gmx_ana_index_t, ptr %8, i32 0, i32 0
  %10 = load i32, ptr %9, align 8, !tbaa !234
  %11 = load ptr, ptr %4, align 8, !tbaa !232
  %12 = getelementptr inbounds nuw %struct.gmx_ana_index_t, ptr %11, i32 0, i32 0
  store i32 %10, ptr %12, align 8, !tbaa !234
  %13 = load i8, ptr %6, align 1, !tbaa !36, !range !298, !noundef !299
  %14 = trunc i8 %13 to i1
  br i1 %14, label %15, label %27

15:                                               ; preds = %3
  %16 = load ptr, ptr %4, align 8, !tbaa !232
  %17 = getelementptr inbounds nuw %struct.gmx_ana_index_t, ptr %16, i32 0, i32 1
  %18 = load ptr, ptr %4, align 8, !tbaa !232
  %19 = getelementptr inbounds nuw %struct.gmx_ana_index_t, ptr %18, i32 0, i32 0
  %20 = load i32, ptr %19, align 8, !tbaa !234
  %21 = sext i32 %20 to i64
  call void @_ZL13gmx_snew_implIiEvPKcS1_iRPT_m(ptr noundef @.str.12, ptr noundef @.str.3, i32 noundef 365, ptr noundef nonnull align 8 dereferenceable(8) %17, i64 noundef %21)
  %22 = load ptr, ptr %4, align 8, !tbaa !232
  %23 = getelementptr inbounds nuw %struct.gmx_ana_index_t, ptr %22, i32 0, i32 0
  %24 = load i32, ptr %23, align 8, !tbaa !234
  %25 = load ptr, ptr %4, align 8, !tbaa !232
  %26 = getelementptr inbounds nuw %struct.gmx_ana_index_t, ptr %25, i32 0, i32 2
  store i32 %24, ptr %26, align 8, !tbaa !238
  br label %27

27:                                               ; preds = %15, %3
  %28 = load ptr, ptr %4, align 8, !tbaa !232
  %29 = getelementptr inbounds nuw %struct.gmx_ana_index_t, ptr %28, i32 0, i32 0
  %30 = load i32, ptr %29, align 8, !tbaa !234
  %31 = icmp sgt i32 %30, 0
  br i1 %31, label %32, label %44

32:                                               ; preds = %27
  %33 = load ptr, ptr %4, align 8, !tbaa !232
  %34 = getelementptr inbounds nuw %struct.gmx_ana_index_t, ptr %33, i32 0, i32 1
  %35 = load ptr, ptr %34, align 8, !tbaa !236
  %36 = load ptr, ptr %5, align 8, !tbaa !232
  %37 = getelementptr inbounds nuw %struct.gmx_ana_index_t, ptr %36, i32 0, i32 1
  %38 = load ptr, ptr %37, align 8, !tbaa !236
  %39 = load ptr, ptr %4, align 8, !tbaa !232
  %40 = getelementptr inbounds nuw %struct.gmx_ana_index_t, ptr %39, i32 0, i32 0
  %41 = load i32, ptr %40, align 8, !tbaa !234
  %42 = sext i32 %41 to i64
  %43 = mul i64 %42, 4
  call void @llvm.memcpy.p0.p0.i64(ptr align 4 %35, ptr align 4 %38, i64 %43, i1 false)
  br label %44

44:                                               ; preds = %32, %27
  ret void
}