; Function Attrs: mustprogress uwtable
define void @_Z18gmx_ana_index_copyP15gmx_ana_index_tS0_b(ptr noundef captures(none) initializes((0, 4)) %0, ptr noundef readonly captures(none) %1, i1 noundef zeroext %2) local_unnamed_addr #0 {
  %4 = load i32, ptr %1, align 8, !tbaa !73
  store i32 %4, ptr %0, align 8, !tbaa !73
  br i1 %2, label %5, label %11

5:                                                ; preds = %3
  %6 = getelementptr inbounds nuw i8, ptr %0, i64 8
  %7 = sext i32 %4 to i64
  %8 = tail call noundef ptr @_Z11save_callocPKcS0_imm(ptr noundef nonnull @.str.12, ptr noundef nonnull @.str.3, i32 noundef 365, i64 noundef range(i64 -2147483648, 2147483648) %7, i64 noundef 4)
  store ptr %8, ptr %6, align 8, !tbaa !30
  %9 = load i32, ptr %0, align 8, !tbaa !73
  %10 = getelementptr inbounds nuw i8, ptr %0, i64 16
  store i32 %9, ptr %10, align 8, !tbaa !75
  br label %11

11:                                               ; preds = %5, %3
  %12 = phi i32 [ %9, %5 ], [ %4, %3 ]
  %13 = icmp sgt i32 %12, 0
  br i1 %13, label %14, label %21

14:                                               ; preds = %11
  %15 = getelementptr inbounds nuw i8, ptr %0, i64 8
  %16 = load ptr, ptr %15, align 8, !tbaa !108
  %17 = getelementptr inbounds nuw i8, ptr %1, i64 8
  %18 = load ptr, ptr %17, align 8, !tbaa !108
  %19 = zext nneg i32 %12 to i64
  %20 = shl nuw nsw i64 %19, 2
  tail call void @llvm.memcpy.p0.p0.i64(ptr align 4 %16, ptr align 4 %18, i64 %20, i1 false)
  br label %21

21:                                               ; preds = %14, %11
  ret void
}